target datalayout = "e-m:e-p270:32:32-p271:32:32-p272:64:64-i64:64-i128:128-f80:128-n8:16:32:64-S128"
target triple = "x86_64-pc-linux-gnu"

%struct.AVPixFmtDescriptor = type { ptr, i8, i8, i8, i64, [4 x %struct.AVComponentDescriptor], ptr }
%struct.AVComponentDescriptor = type { i32, i32, i32, i32, i32 }
%struct.AVFilterLink = type { ptr, ptr, ptr, ptr, i32, i32, i32, i32, %struct.AVRational, i32, i32, i32, %struct.AVChannelLayout, %struct.AVRational, ptr, i32, %struct.AVFilterFormatsConfig, %struct.AVFilterFormatsConfig }
%struct.AVChannelLayout = type { i32, i32, %union.anon.1, ptr }
%union.anon.1 = type { i64 }
%struct.AVRational = type { i32, i32 }
%struct.AVFilterFormatsConfig = type { ptr, ptr, ptr, ptr, ptr }
%struct.AVFilterContext = type { ptr, ptr, ptr, ptr, ptr, i32, ptr, ptr, i32, ptr, ptr, i32, i32, ptr, ptr, ptr, ptr, i32, ptr, i32, i32 }
%struct.TransContext = type { ptr, i32, i32, i32, [4 x i32], i32, i32, [4 x %struct.TransVtable] }
%struct.TransVtable = type { ptr, ptr }

@.str.3 = private unnamed_addr constant [78 x i8] c"dir values greater than 3 are deprecated, use the passthrough option instead\0A\00", align 1
@.str.4 = private unnamed_addr constant [43 x i8] c"w:%d h:%d -> w:%d h:%d (passthrough mode)\0A\00", align 1
@.str.5 = private unnamed_addr constant [30 x i8] c"Assertion %s failed at %s:%d\0A\00", align 1
@.str.6 = private unnamed_addr constant [50 x i8] c"desc_in->nb_components == desc_out->nb_components\00", align 1
@.str.7 = private unnamed_addr constant [27 x i8] c"libavfilter/vf_transpose.c\00", align 1
@.str.8 = private unnamed_addr constant [52 x i8] c"w:%d h:%d dir:%d -> w:%d h:%d rotation:%s vflip:%d\0A\00", align 1
@.str.9 = private unnamed_addr constant [10 x i8] c"clockwise\00", align 1
@.str.10 = private unnamed_addr constant [17 x i8] c"counterclockwise\00", align 1

; Function Attrs: nounwind uwtable
define internal i32 @config_props_output(ptr noundef %0) #0 {
  %2 = alloca i32, align 4
  %3 = alloca ptr, align 8
  %4 = alloca ptr, align 8
  %5 = alloca ptr, align 8
  %6 = alloca ptr, align 8
  %7 = alloca ptr, align 8
  %8 = alloca ptr, align 8
  %9 = alloca i32, align 4
  %10 = alloca %struct.AVRational, align 4
  %11 = alloca %struct.AVRational, align 4
  %12 = alloca i32, align 4
  %13 = alloca ptr, align 8
  store ptr %0, ptr %3, align 8, !tbaa !26
  call void @llvm.lifetime.start.p0(i64 8, ptr %4) #9
  %14 = load ptr, ptr %3, align 8, !tbaa !26
  %15 = getelementptr inbounds nuw %struct.AVFilterLink, ptr %14, i32 0, i32 0
  %16 = load ptr, ptr %15, align 8, !tbaa !82
  store ptr %16, ptr %4, align 8, !tbaa !4
  call void @llvm.lifetime.start.p0(i64 8, ptr %5) #9
  %17 = load ptr, ptr %4, align 8, !tbaa !4
  %18 = getelementptr inbounds nuw %struct.AVFilterContext, ptr %17, i32 0, i32 9
  %19 = load ptr, ptr %18, align 8, !tbaa !36
  store ptr %19, ptr %5, align 8, !tbaa !45
  call void @llvm.lifetime.start.p0(i64 8, ptr %6) #9
  %20 = load ptr, ptr %4, align 8, !tbaa !4
  %21 = getelementptr inbounds nuw %struct.AVFilterContext, ptr %20, i32 0, i32 4
  %22 = load ptr, ptr %21, align 8, !tbaa !83
  %23 = getelementptr inbounds ptr, ptr %22, i64 0
  %24 = load ptr, ptr %23, align 8, !tbaa !26
  store ptr %24, ptr %6, align 8, !tbaa !26
  call void @llvm.lifetime.start.p0(i64 8, ptr %7) #9
  %25 = load ptr, ptr %3, align 8, !tbaa !26
  %26 = getelementptr inbounds nuw %struct.AVFilterLink, ptr %25, i32 0, i32 5
  %27 = load i32, ptr %26, align 4, !tbaa !84
  %28 = call ptr @av_pix_fmt_desc_get(i32 noundef %27)
  store ptr %28, ptr %7, align 8, !tbaa !16
  call void @llvm.lifetime.start.p0(i64 8, ptr %8) #9
  %29 = load ptr, ptr %6, align 8, !tbaa !26
  %30 = getelementptr inbounds nuw %struct.AVFilterLink, ptr %29, i32 0, i32 5
  %31 = load i32, ptr %30, align 4, !tbaa !84
  %32 = call ptr @av_pix_fmt_desc_get(i32 noundef %31)
  store ptr %32, ptr %8, align 8, !tbaa !16
  %33 = load ptr, ptr %5, align 8, !tbaa !45
  %34 = getelementptr inbounds nuw %struct.TransContext, ptr %33, i32 0, i32 6
  %35 = load i32, ptr %34, align 8, !tbaa !75
  %36 = and i32 %35, 4
  %37 = icmp ne i32 %36, 0
  br i1 %37, label %38, label %46

38:                                               ; preds = %1
  %39 = load ptr, ptr %4, align 8, !tbaa !4
  call void (ptr, i32, ptr, ...) @av_log(ptr noundef %39, i32 noundef 24, ptr noundef @.str.3)
  %40 = load ptr, ptr %5, align 8, !tbaa !45
  %41 = getelementptr inbounds nuw %struct.TransContext, ptr %40, i32 0, i32 6
  %42 = load i32, ptr %41, align 8, !tbaa !75
  %43 = and i32 %42, 3
  store i32 %43, ptr %41, align 8, !tbaa !75
  %44 = load ptr, ptr %5, align 8, !tbaa !45
  %45 = getelementptr inbounds nuw %struct.TransContext, ptr %44, i32 0, i32 5
  store i32 1, ptr %45, align 4, !tbaa !47
  br label %46

46:                                               ; preds = %38, %1
  %47 = load ptr, ptr %6, align 8, !tbaa !26
  %48 = getelementptr inbounds nuw %struct.AVFilterLink, ptr %47, i32 0, i32 6
  %49 = load i32, ptr %48, align 8, !tbaa !52
  %50 = load ptr, ptr %6, align 8, !tbaa !26
  %51 = getelementptr inbounds nuw %struct.AVFilterLink, ptr %50, i32 0, i32 7
  %52 = load i32, ptr %51, align 4, !tbaa !53
  %53 = icmp sge i32 %49, %52
  br i1 %53, label %54, label %59

54:                                               ; preds = %46
  %55 = load ptr, ptr %5, align 8, !tbaa !45
  %56 = getelementptr inbounds nuw %struct.TransContext, ptr %55, i32 0, i32 5
  %57 = load i32, ptr %56, align 4, !tbaa !47
  %58 = icmp eq i32 %57, 1
  br i1 %58, label %72, label %59

59:                                               ; preds = %54, %46
  %60 = load ptr, ptr %6, align 8, !tbaa !26
  %61 = getelementptr inbounds nuw %struct.AVFilterLink, ptr %60, i32 0, i32 6
  %62 = load i32, ptr %61, align 8, !tbaa !52
  %63 = load ptr, ptr %6, align 8, !tbaa !26
  %64 = getelementptr inbounds nuw %struct.AVFilterLink, ptr %63, i32 0, i32 7
  %65 = load i32, ptr %64, align 4, !tbaa !53
  %66 = icmp sle i32 %62, %65
  br i1 %66, label %67, label %86

67:                                               ; preds = %59
  %68 = load ptr, ptr %5, align 8, !tbaa !45
  %69 = getelementptr inbounds nuw %struct.TransContext, ptr %68, i32 0, i32 5
  %70 = load i32, ptr %69, align 4, !tbaa !47
  %71 = icmp eq i32 %70, 2
  br i1 %71, label %72, label %86

72:                                               ; preds = %67, %54
  %73 = load ptr, ptr %4, align 8, !tbaa !4
  %74 = load ptr, ptr %6, align 8, !tbaa !26
  %75 = getelementptr inbounds nuw %struct.AVFilterLink, ptr %74, i32 0, i32 6
  %76 = load i32, ptr %75, align 8, !tbaa !52
  %77 = load ptr, ptr %6, align 8, !tbaa !26
  %78 = getelementptr inbounds nuw %struct.AVFilterLink, ptr %77, i32 0, i32 7
  %79 = load i32, ptr %78, align 4, !tbaa !53
  %80 = load ptr, ptr %6, align 8, !tbaa !26
  %81 = getelementptr inbounds nuw %struct.AVFilterLink, ptr %80, i32 0, i32 6
  %82 = load i32, ptr %81, align 8, !tbaa !52
  %83 = load ptr, ptr %6, align 8, !tbaa !26
  %84 = getelementptr inbounds nuw %struct.AVFilterLink, ptr %83, i32 0, i32 7
  %85 = load i32, ptr %84, align 4, !tbaa !53
  call void (ptr, i32, ptr, ...) @av_log(ptr noundef %73, i32 noundef 40, ptr noundef @.str.4, i32 noundef %76, i32 noundef %79, i32 noundef %82, i32 noundef %85)
  store i32 0, ptr %2, align 4
  store i32 1, ptr %9, align 4
  br label %248

86:                                               ; preds = %67, %59
  %87 = load ptr, ptr %5, align 8, !tbaa !45
  %88 = getelementptr inbounds nuw %struct.TransContext, ptr %87, i32 0, i32 5
  store i32 0, ptr %88, align 4, !tbaa !47
  br label %89

89:                                               ; preds = %86
  %90 = load ptr, ptr %8, align 8, !tbaa !16
  %91 = getelementptr inbounds nuw %struct.AVPixFmtDescriptor, ptr %90, i32 0, i32 2
  %92 = load i8, ptr %91, align 1, !tbaa !22
  %93 = zext i8 %92 to i32
  %94 = load ptr, ptr %5, align 8, !tbaa !45
  %95 = getelementptr inbounds nuw %struct.TransContext, ptr %94, i32 0, i32 1
  store i32 %93, ptr %95, align 8, !tbaa !68
  %96 = load ptr, ptr %8, align 8, !tbaa !16
  %97 = getelementptr inbounds nuw %struct.AVPixFmtDescriptor, ptr %96, i32 0, i32 3
  %98 = load i8, ptr %97, align 2, !tbaa !23
  %99 = zext i8 %98 to i32
  %100 = load ptr, ptr %5, align 8, !tbaa !45
  %101 = getelementptr inbounds nuw %struct.TransContext, ptr %100, i32 0, i32 2
  store i32 %99, ptr %101, align 4, !tbaa !69
  %102 = load ptr, ptr %3, align 8, !tbaa !26
  %103 = getelementptr inbounds nuw %struct.AVFilterLink, ptr %102, i32 0, i32 5
  %104 = load i32, ptr %103, align 4, !tbaa !84
  %105 = call i32 @av_pix_fmt_count_planes(i32 noundef %104)
  %106 = load ptr, ptr %5, align 8, !tbaa !45
  %107 = getelementptr inbounds nuw %struct.TransContext, ptr %106, i32 0, i32 3
  store i32 %105, ptr %107, align 8, !tbaa !67
  br label %108

108:                                              ; preds = %89
  %109 = load ptr, ptr %8, align 8, !tbaa !16
  %110 = getelementptr inbounds nuw %struct.AVPixFmtDescriptor, ptr %109, i32 0, i32 1
  %111 = load i8, ptr %110, align 8, !tbaa !85
  %112 = zext i8 %111 to i32
  %113 = load ptr, ptr %7, align 8, !tbaa !16
  %114 = getelementptr inbounds nuw %struct.AVPixFmtDescriptor, ptr %113, i32 0, i32 1
  %115 = load i8, ptr %114, align 8, !tbaa !85
  %116 = zext i8 %115 to i32
  %117 = icmp eq i32 %112, %116
  br i1 %117, label %119, label %118

118:                                              ; preds = %108
  call void (ptr, i32, ptr, ...) @av_log(ptr noundef null, i32 noundef 0, ptr noundef @.str.5, ptr noundef @.str.6, ptr noundef @.str.7, i32 noundef 208)
  call void @abort() #11
  unreachable

119:                                              ; preds = %108
  br label %120

120:                                              ; preds = %119
  br label %121

121:                                              ; preds = %120
  %122 = load ptr, ptr %5, align 8, !tbaa !45
  %123 = getelementptr inbounds nuw %struct.TransContext, ptr %122, i32 0, i32 4
  %124 = getelementptr inbounds [4 x i32], ptr %123, i64 0, i64 0
  %125 = load ptr, ptr %7, align 8, !tbaa !16
  call void @av_image_fill_max_pixsteps(ptr noundef %124, ptr noundef null, ptr noundef %125)
  %126 = load ptr, ptr %6, align 8, !tbaa !26
  %127 = getelementptr inbounds nuw %struct.AVFilterLink, ptr %126, i32 0, i32 7
  %128 = load i32, ptr %127, align 4, !tbaa !53
  %129 = load ptr, ptr %3, align 8, !tbaa !26
  %130 = getelementptr inbounds nuw %struct.AVFilterLink, ptr %129, i32 0, i32 6
  store i32 %128, ptr %130, align 8, !tbaa !52
  %131 = load ptr, ptr %6, align 8, !tbaa !26
  %132 = getelementptr inbounds nuw %struct.AVFilterLink, ptr %131, i32 0, i32 6
  %133 = load i32, ptr %132, align 8, !tbaa !52
  %134 = load ptr, ptr %3, align 8, !tbaa !26
  %135 = getelementptr inbounds nuw %struct.AVFilterLink, ptr %134, i32 0, i32 7
  store i32 %133, ptr %135, align 4, !tbaa !53
  %136 = load ptr, ptr %6, align 8, !tbaa !26
  %137 = getelementptr inbounds nuw %struct.AVFilterLink, ptr %136, i32 0, i32 8
  %138 = getelementptr inbounds nuw %struct.AVRational, ptr %137, i32 0, i32 0
  %139 = load i32, ptr %138, align 8, !tbaa !86
  %140 = icmp ne i32 %139, 0
  br i1 %140, label %141, label %151

141:                                              ; preds = %121
  %142 = load ptr, ptr %3, align 8, !tbaa !26
  %143 = getelementptr inbounds nuw %struct.AVFilterLink, ptr %142, i32 0, i32 8
  call void @llvm.lifetime.start.p0(i64 8, ptr %10) #9
  %144 = getelementptr inbounds nuw %struct.AVRational, ptr %11, i32 0, i32 0
  store i32 1, ptr %144, align 4, !tbaa !87
  %145 = getelementptr inbounds nuw %struct.AVRational, ptr %11, i32 0, i32 1
  store i32 1, ptr %145, align 4, !tbaa !88
  %146 = load ptr, ptr %6, align 8, !tbaa !26
  %147 = getelementptr inbounds nuw %struct.AVFilterLink, ptr %146, i32 0, i32 8
  %148 = load i64, ptr %11, align 4
  %149 = load i64, ptr %147, align 8
  %150 = call i64 @av_div_q(i64 %148, i64 %149) #12
  store i64 %150, ptr %10, align 4
  call void @llvm.memcpy.p0.p0.i64(ptr align 8 %143, ptr align 4 %10, i64 8, i1 false), !tbaa.struct !59
  call void @llvm.lifetime.end.p0(i64 8, ptr %10) #9
  br label %156

151:                                              ; preds = %121
  %152 = load ptr, ptr %3, align 8, !tbaa !26
  %153 = getelementptr inbounds nuw %struct.AVFilterLink, ptr %152, i32 0, i32 8
  %154 = load ptr, ptr %6, align 8, !tbaa !26
  %155 = getelementptr inbounds nuw %struct.AVFilterLink, ptr %154, i32 0, i32 8
  call void @llvm.memcpy.p0.p0.i64(ptr align 8 %153, ptr align 8 %155, i64 8, i1 false), !tbaa.struct !59
  br label %156

156:                                              ; preds = %151, %141
  call void @llvm.lifetime.start.p0(i64 4, ptr %12) #9
  store i32 0, ptr %12, align 4, !tbaa !14
  br label %157

157:                                              ; preds = %204, %156
  %158 = load i32, ptr %12, align 4, !tbaa !14
  %159 = icmp slt i32 %158, 4
  br i1 %159, label %161, label %160

160:                                              ; preds = %157
  store i32 4, ptr %9, align 4
  call void @llvm.lifetime.end.p0(i64 4, ptr %12) #9
  br label %207

161:                                              ; preds = %157
  call void @llvm.lifetime.start.p0(i64 8, ptr %13) #9
  %162 = load ptr, ptr %5, align 8, !tbaa !45
  %163 = getelementptr inbounds nuw %struct.TransContext, ptr %162, i32 0, i32 7
  %164 = load i32, ptr %12, align 4, !tbaa !14
  %165 = sext i32 %164 to i64
  %166 = getelementptr inbounds [4 x %struct.TransVtable], ptr %163, i64 0, i64 %165
  store ptr %166, ptr %13, align 8, !tbaa !72
  %167 = load ptr, ptr %5, align 8, !tbaa !45
  %168 = getelementptr inbounds nuw %struct.TransContext, ptr %167, i32 0, i32 4
  %169 = load i32, ptr %12, align 4, !tbaa !14
  %170 = sext i32 %169 to i64
  %171 = getelementptr inbounds [4 x i32], ptr %168, i64 0, i64 %170
  %172 = load i32, ptr %171, align 4, !tbaa !14
  switch i32 %172, label %203 [
    i32 1, label %173
    i32 2, label %178
    i32 3, label %183
    i32 4, label %188
    i32 6, label %193
    i32 8, label %198
  ]

173:                                              ; preds = %161
  %174 = load ptr, ptr %13, align 8, !tbaa !72
  %175 = getelementptr inbounds nuw %struct.TransVtable, ptr %174, i32 0, i32 1
  store ptr @transpose_block_8_c, ptr %175, align 8, !tbaa !79
  %176 = load ptr, ptr %13, align 8, !tbaa !72
  %177 = getelementptr inbounds nuw %struct.TransVtable, ptr %176, i32 0, i32 0
  store ptr @transpose_8x8_8_c, ptr %177, align 8, !tbaa !76
  br label %203

178:                                              ; preds = %161
  %179 = load ptr, ptr %13, align 8, !tbaa !72
  %180 = getelementptr inbounds nuw %struct.TransVtable, ptr %179, i32 0, i32 1
  store ptr @transpose_block_16_c, ptr %180, align 8, !tbaa !79
  %181 = load ptr, ptr %13, align 8, !tbaa !72
  %182 = getelementptr inbounds nuw %struct.TransVtable, ptr %181, i32 0, i32 0
  store ptr @transpose_8x8_16_c, ptr %182, align 8, !tbaa !76
  br label %203

183:                                              ; preds = %161
  %184 = load ptr, ptr %13, align 8, !tbaa !72
  %185 = getelementptr inbounds nuw %struct.TransVtable, ptr %184, i32 0, i32 1
  store ptr @transpose_block_24_c, ptr %185, align 8, !tbaa !79
  %186 = load ptr, ptr %13, align 8, !tbaa !72
  %187 = getelementptr inbounds nuw %struct.TransVtable, ptr %186, i32 0, i32 0
  store ptr @transpose_8x8_24_c, ptr %187, align 8, !tbaa !76
  br label %203

188:                                              ; preds = %161
  %189 = load ptr, ptr %13, align 8, !tbaa !72
  %190 = getelementptr inbounds nuw %struct.TransVtable, ptr %189, i32 0, i32 1
  store ptr @transpose_block_32_c, ptr %190, align 8, !tbaa !79
  %191 = load ptr, ptr %13, align 8, !tbaa !72
  %192 = getelementptr inbounds nuw %struct.TransVtable, ptr %191, i32 0, i32 0
  store ptr @transpose_8x8_32_c, ptr %192, align 8, !tbaa !76
  br label %203

193:                                              ; preds = %161
  %194 = load ptr, ptr %13, align 8, !tbaa !72
  %195 = getelementptr inbounds nuw %struct.TransVtable, ptr %194, i32 0, i32 1
  store ptr @transpose_block_48_c, ptr %195, align 8, !tbaa !79
  %196 = load ptr, ptr %13, align 8, !tbaa !72
  %197 = getelementptr inbounds nuw %struct.TransVtable, ptr %196, i32 0, i32 0
  store ptr @transpose_8x8_48_c, ptr %197, align 8, !tbaa !76
  br label %203

198:                                              ; preds = %161
  %199 = load ptr, ptr %13, align 8, !tbaa !72
  %200 = getelementptr inbounds nuw %struct.TransVtable, ptr %199, i32 0, i32 1
  store ptr @transpose_block_64_c, ptr %200, align 8, !tbaa !79
  %201 = load ptr, ptr %13, align 8, !tbaa !72
  %202 = getelementptr inbounds nuw %struct.TransVtable, ptr %201, i32 0, i32 0
  store ptr @transpose_8x8_64_c, ptr %202, align 8, !tbaa !76
  br label %203

203:                                              ; preds = %161, %198, %193, %188, %183, %178, %173
  call void @llvm.lifetime.end.p0(i64 8, ptr %13) #9
  br label %204

204:                                              ; preds = %203
  %205 = load i32, ptr %12, align 4, !tbaa !14
  %206 = add nsw i32 %205, 1
  store i32 %206, ptr %12, align 4, !tbaa !14
  br label %157, !llvm.loop !89

207:                                              ; preds = %160
  %208 = load ptr, ptr %4, align 8, !tbaa !4
  %209 = load ptr, ptr %6, align 8, !tbaa !26
  %210 = getelementptr inbounds nuw %struct.AVFilterLink, ptr %209, i32 0, i32 6
  %211 = load i32, ptr %210, align 8, !tbaa !52
  %212 = load ptr, ptr %6, align 8, !tbaa !26
  %213 = getelementptr inbounds nuw %struct.AVFilterLink, ptr %212, i32 0, i32 7
  %214 = load i32, ptr %213, align 4, !tbaa !53
  %215 = load ptr, ptr %5, align 8, !tbaa !45
  %216 = getelementptr inbounds nuw %struct.TransContext, ptr %215, i32 0, i32 6
  %217 = load i32, ptr %216, align 8, !tbaa !75
  %218 = load ptr, ptr %3, align 8, !tbaa !26
  %219 = getelementptr inbounds nuw %struct.AVFilterLink, ptr %218, i32 0, i32 6
  %220 = load i32, ptr %219, align 8, !tbaa !52
  %221 = load ptr, ptr %3, align 8, !tbaa !26
  %222 = getelementptr inbounds nuw %struct.AVFilterLink, ptr %221, i32 0, i32 7
  %223 = load i32, ptr %222, align 4, !tbaa !53
  %224 = load ptr, ptr %5, align 8, !tbaa !45
  %225 = getelementptr inbounds nuw %struct.TransContext, ptr %224, i32 0, i32 6
  %226 = load i32, ptr %225, align 8, !tbaa !75
  %227 = icmp eq i32 %226, 1
  br i1 %227, label %233, label %228

228:                                              ; preds = %207
  %229 = load ptr, ptr %5, align 8, !tbaa !45
  %230 = getelementptr inbounds nuw %struct.TransContext, ptr %229, i32 0, i32 6
  %231 = load i32, ptr %230, align 8, !tbaa !75
  %232 = icmp eq i32 %231, 3
  br label %233

233:                                              ; preds = %228, %207
  %234 = phi i1 [ true, %207 ], [ %232, %228 ]
  %235 = select i1 %234, ptr @.str.9, ptr @.str.10
  %236 = load ptr, ptr %5, align 8, !tbaa !45
  %237 = getelementptr inbounds nuw %struct.TransContext, ptr %236, i32 0, i32 6
  %238 = load i32, ptr %237, align 8, !tbaa !75
  %239 = icmp eq i32 %238, 0
  br i1 %239, label %245, label %240

240:                                              ; preds = %233
  %241 = load ptr, ptr %5, align 8, !tbaa !45
  %242 = getelementptr inbounds nuw %struct.TransContext, ptr %241, i32 0, i32 6
  %243 = load i32, ptr %242, align 8, !tbaa !75
  %244 = icmp eq i32 %243, 3
  br label %245

245:                                              ; preds = %240, %233
  %246 = phi i1 [ true, %233 ], [ %244, %240 ]
  %247 = zext i1 %246 to i32
  call void (ptr, i32, ptr, ...) @av_log(ptr noundef %208, i32 noundef 40, ptr noundef @.str.8, i32 noundef %211, i32 noundef %214, i32 noundef %217, i32 noundef %220, i32 noundef %223, ptr noundef %235, i32 noundef %247)
  store i32 0, ptr %2, align 4
  store i32 1, ptr %9, align 4
  br label %248

248:                                              ; preds = %245, %72
  call void @llvm.lifetime.end.p0(i64 8, ptr %8) #9
  call void @llvm.lifetime.end.p0(i64 8, ptr %7) #9
  call void @llvm.lifetime.end.p0(i64 8, ptr %6) #9
  call void @llvm.lifetime.end.p0(i64 8, ptr %5) #9
  call void @llvm.lifetime.end.p0(i64 8, ptr %4) #9
  %249 = load i32, ptr %2, align 4
  ret i32 %249
}