; Function Attrs: nounwind uwtable
define internal noundef i32 @config_props_output(ptr noundef captures(none) %0) #0 {
  %2 = load ptr, ptr %0, align 8, !tbaa !69
  %3 = getelementptr inbounds nuw i8, ptr %2, i64 72
  %4 = load ptr, ptr %3, align 8, !tbaa !28
  %5 = getelementptr inbounds nuw i8, ptr %2, i64 32
  %6 = load ptr, ptr %5, align 8, !tbaa !70
  %7 = load ptr, ptr %6, align 8, !tbaa !42
  %8 = getelementptr inbounds nuw i8, ptr %0, i64 36
  %9 = load i32, ptr %8, align 4, !tbaa !71
  %10 = tail call ptr @av_pix_fmt_desc_get(i32 noundef %9) #9
  %11 = getelementptr inbounds nuw i8, ptr %7, i64 36
  %12 = load i32, ptr %11, align 4, !tbaa !71
  %13 = tail call ptr @av_pix_fmt_desc_get(i32 noundef %12) #9
  %14 = getelementptr inbounds nuw i8, ptr %4, i64 40
  %15 = load i32, ptr %14, align 8, !tbaa !62
  %16 = and i32 %15, 4
  %.not = icmp eq i32 %16, 0
  br i1 %.not, label %21, label %17

17:                                               ; preds = %1
  tail call void (ptr, i32, ptr, ...) @av_log(ptr noundef nonnull %2, i32 noundef 24, ptr noundef nonnull @.str.3) #9
  %18 = load i32, ptr %14, align 8, !tbaa !62
  %19 = and i32 %18, 3
  store i32 %19, ptr %14, align 8, !tbaa !62
  %20 = getelementptr inbounds nuw i8, ptr %4, i64 36
  store i32 1, ptr %20, align 4, !tbaa !37
  br label %21

21:                                               ; preds = %17, %1
  %22 = getelementptr inbounds nuw i8, ptr %7, i64 40
  %23 = load i32, ptr %22, align 8, !tbaa !44
  %24 = getelementptr inbounds nuw i8, ptr %7, i64 44
  %25 = load i32, ptr %24, align 4, !tbaa !45
  %.not71 = icmp slt i32 %23, %25
  br i1 %.not71, label %30, label %26

26:                                               ; preds = %21
  %27 = getelementptr inbounds nuw i8, ptr %4, i64 36
  %28 = load i32, ptr %27, align 4, !tbaa !37
  %29 = icmp eq i32 %28, 1
  br i1 %29, label %35, label %30

30:                                               ; preds = %26, %21
  %.not72 = icmp sgt i32 %23, %25
  br i1 %.not72, label %36, label %31

31:                                               ; preds = %30
  %32 = getelementptr inbounds nuw i8, ptr %4, i64 36
  %33 = load i32, ptr %32, align 4, !tbaa !37
  %34 = icmp eq i32 %33, 2
  br i1 %34, label %35, label %36

35:                                               ; preds = %31, %26
  tail call void (ptr, i32, ptr, ...) @av_log(ptr noundef nonnull %2, i32 noundef 40, ptr noundef nonnull @.str.4, i32 noundef %23, i32 noundef %25, i32 noundef %23, i32 noundef %25) #9
  br label %88

36:                                               ; preds = %31, %30
  %37 = getelementptr inbounds nuw i8, ptr %4, i64 36
  store i32 0, ptr %37, align 4, !tbaa !37
  %38 = getelementptr inbounds nuw i8, ptr %13, i64 9
  %39 = load i8, ptr %38, align 1, !tbaa !13
  %40 = zext i8 %39 to i32
  %41 = getelementptr inbounds nuw i8, ptr %4, i64 8
  store i32 %40, ptr %41, align 8, !tbaa !56
  %42 = getelementptr inbounds nuw i8, ptr %13, i64 10
  %43 = load i8, ptr %42, align 2, !tbaa !14
  %44 = zext i8 %43 to i32
  %45 = getelementptr inbounds nuw i8, ptr %4, i64 12
  store i32 %44, ptr %45, align 4, !tbaa !57
  %46 = load i32, ptr %8, align 4, !tbaa !71
  %47 = tail call i32 @av_pix_fmt_count_planes(i32 noundef %46) #9
  %48 = getelementptr inbounds nuw i8, ptr %4, i64 16
  store i32 %47, ptr %48, align 8, !tbaa !55
  %49 = getelementptr inbounds nuw i8, ptr %13, i64 8
  %50 = load i8, ptr %49, align 8, !tbaa !72
  %51 = getelementptr inbounds nuw i8, ptr %10, i64 8
  %52 = load i8, ptr %51, align 8, !tbaa !72
  %53 = icmp eq i8 %50, %52
  br i1 %53, label %55, label %54

54:                                               ; preds = %36
  tail call void (ptr, i32, ptr, ...) @av_log(ptr noundef null, i32 noundef 0, ptr noundef nonnull @.str.5, ptr noundef nonnull @.str.6, ptr noundef nonnull @.str.7, i32 noundef 208) #9
  tail call void @abort() #11
  unreachable

55:                                               ; preds = %36
  %56 = getelementptr inbounds nuw i8, ptr %4, i64 20
  tail call void @av_image_fill_max_pixsteps(ptr noundef nonnull %56, ptr noundef null, ptr noundef nonnull %10) #9
  %57 = load i32, ptr %24, align 4, !tbaa !45
  %58 = getelementptr inbounds nuw i8, ptr %0, i64 40
  store i32 %57, ptr %58, align 8, !tbaa !44
  %59 = load i32, ptr %22, align 8, !tbaa !44
  %60 = getelementptr inbounds nuw i8, ptr %0, i64 44
  store i32 %59, ptr %60, align 4, !tbaa !45
  %61 = getelementptr inbounds nuw i8, ptr %7, i64 48
  %62 = load i32, ptr %61, align 8, !tbaa !73
  %.not73 = icmp eq i32 %62, 0
  %63 = load i64, ptr %61, align 8
  br i1 %.not73, label %66, label %64

64:                                               ; preds = %55
  %65 = tail call i64 @av_div_q(i64 4294967297, i64 %63) #12
  br label %66

66:                                               ; preds = %55, %64
  %.sink = phi i64 [ %65, %64 ], [ %63, %55 ]
  %67 = getelementptr inbounds nuw i8, ptr %0, i64 48
  store i64 %.sink, ptr %67, align 8
  %68 = getelementptr inbounds nuw i8, ptr %4, i64 48
  br label %79

69:                                               ; preds = %87
  %70 = load i32, ptr %22, align 8, !tbaa !44
  %71 = load i32, ptr %24, align 4, !tbaa !45
  %72 = load i32, ptr %14, align 8, !tbaa !62
  %73 = icmp eq i32 %72, 1
  %74 = icmp eq i32 %72, 3
  %75 = or i1 %73, %74
  %76 = select i1 %75, ptr @.str.9, ptr @.str.10
  %77 = icmp eq i32 %72, 0
  %narrow = or i1 %77, %74
  %78 = zext i1 %narrow to i32
  tail call void (ptr, i32, ptr, ...) @av_log(ptr noundef %2, i32 noundef 40, ptr noundef nonnull @.str.8, i32 noundef %70, i32 noundef %71, i32 noundef %72, i32 noundef %57, i32 noundef %59, ptr noundef nonnull %76, i32 noundef %78) #9
  br label %88

79:                                               ; preds = %66, %87
  %indvars.iv = phi i64 [ 0, %66 ], [ %indvars.iv.next, %87 ]
  %80 = getelementptr inbounds nuw [4 x i32], ptr %56, i64 0, i64 %indvars.iv
  %81 = load i32, ptr %80, align 4, !tbaa !58
  %switch.tableidx = add i32 %81, -1
  %82 = icmp ult i32 %switch.tableidx, 8
  %switch.maskindex = trunc i32 %switch.tableidx to i8
  %switch.shifted = lshr i8 -81, %switch.maskindex
  %switch.lobit = trunc i8 %switch.shifted to i1
  %or.cond = select i1 %82, i1 %switch.lobit, i1 false
  br i1 %or.cond, label %switch.lookup, label %87

switch.lookup:                                    ; preds = %79
  %83 = getelementptr inbounds nuw [4 x %struct.TransVtable], ptr %68, i64 0, i64 %indvars.iv
  %84 = zext nneg i32 %switch.tableidx to i64
  %switch.gep = getelementptr inbounds nuw [8 x ptr], ptr @switch.table.config_props_output, i64 0, i64 %84
  %switch.load = load ptr, ptr %switch.gep, align 8
  %85 = zext nneg i32 %switch.tableidx to i64
  %switch.gep77 = getelementptr inbounds nuw [8 x ptr], ptr @switch.table.config_props_output.1, i64 0, i64 %85
  %switch.load78 = load ptr, ptr %switch.gep77, align 8
  %86 = getelementptr inbounds nuw i8, ptr %83, i64 8
  store ptr %switch.load, ptr %86, align 8, !tbaa !63
  store ptr %switch.load78, ptr %83, align 8, !tbaa !66
  br label %87

87:                                               ; preds = %79, %switch.lookup
  %indvars.iv.next = add nuw nsw i64 %indvars.iv, 1
  %exitcond.not = icmp eq i64 %indvars.iv.next, 4
  br i1 %exitcond.not, label %69, label %79, !llvm.loop !74

88:                                               ; preds = %69, %35
  ret i32 0
}